
format_string_vulnerability.exe:     file format elf32-i386


Disassembly of section .init:

08048354 <_init>:
 8048354:	53                   	push   %ebx
 8048355:	83 ec 08             	sub    $0x8,%esp
 8048358:	e8 e3 00 00 00       	call   8048440 <__x86.get_pc_thunk.bx>
 804835d:	81 c3 a3 1c 00 00    	add    $0x1ca3,%ebx
 8048363:	8b 83 fc ff ff ff    	mov    -0x4(%ebx),%eax
 8048369:	85 c0                	test   %eax,%eax
 804836b:	74 05                	je     8048372 <_init+0x1e>
 804836d:	e8 6e 00 00 00       	call   80483e0 <__gmon_start__@plt>
 8048372:	83 c4 08             	add    $0x8,%esp
 8048375:	5b                   	pop    %ebx
 8048376:	c3                   	ret    

Disassembly of section .plt:

08048380 <.plt>:
 8048380:	ff 35 04 a0 04 08    	push   0x804a004
 8048386:	ff 25 08 a0 04 08    	jmp    *0x804a008
 804838c:	00 00                	add    %al,(%eax)
	...

08048390 <printf@plt>:
 8048390:	ff 25 0c a0 04 08    	jmp    *0x804a00c
 8048396:	68 00 00 00 00       	push   $0x0
 804839b:	e9 e0 ff ff ff       	jmp    8048380 <.plt>

080483a0 <fgets@plt>:
 80483a0:	ff 25 10 a0 04 08    	jmp    *0x804a010
 80483a6:	68 08 00 00 00       	push   $0x8
 80483ab:	e9 d0 ff ff ff       	jmp    8048380 <.plt>

080483b0 <__stack_chk_fail@plt>:
 80483b0:	ff 25 14 a0 04 08    	jmp    *0x804a014
 80483b6:	68 10 00 00 00       	push   $0x10
 80483bb:	e9 c0 ff ff ff       	jmp    8048380 <.plt>

080483c0 <strlen@plt>:
 80483c0:	ff 25 18 a0 04 08    	jmp    *0x804a018
 80483c6:	68 18 00 00 00       	push   $0x18
 80483cb:	e9 b0 ff ff ff       	jmp    8048380 <.plt>

080483d0 <__libc_start_main@plt>:
 80483d0:	ff 25 1c a0 04 08    	jmp    *0x804a01c
 80483d6:	68 20 00 00 00       	push   $0x20
 80483db:	e9 a0 ff ff ff       	jmp    8048380 <.plt>

Disassembly of section .plt.got:

080483e0 <__gmon_start__@plt>:
 80483e0:	ff 25 fc 9f 04 08    	jmp    *0x8049ffc
 80483e6:	66 90                	xchg   %ax,%ax

Disassembly of section .text:

080483f0 <_start>:
 80483f0:	31 ed                	xor    %ebp,%ebp
 80483f2:	5e                   	pop    %esi
 80483f3:	89 e1                	mov    %esp,%ecx
 80483f5:	83 e4 f0             	and    $0xfffffff0,%esp
 80483f8:	50                   	push   %eax
 80483f9:	54                   	push   %esp
 80483fa:	52                   	push   %edx
 80483fb:	e8 23 00 00 00       	call   8048423 <_start+0x33>
 8048400:	81 c3 00 1c 00 00    	add    $0x1c00,%ebx
 8048406:	8d 83 90 e6 ff ff    	lea    -0x1970(%ebx),%eax
 804840c:	50                   	push   %eax
 804840d:	8d 83 30 e6 ff ff    	lea    -0x19d0(%ebx),%eax
 8048413:	50                   	push   %eax
 8048414:	51                   	push   %ecx
 8048415:	56                   	push   %esi
 8048416:	c7 c0 1d 85 04 08    	mov    $0x804851d,%eax
 804841c:	50                   	push   %eax
 804841d:	e8 ae ff ff ff       	call   80483d0 <__libc_start_main@plt>
 8048422:	f4                   	hlt    
 8048423:	8b 1c 24             	mov    (%esp),%ebx
 8048426:	c3                   	ret    
 8048427:	66 90                	xchg   %ax,%ax
 8048429:	66 90                	xchg   %ax,%ax
 804842b:	66 90                	xchg   %ax,%ax
 804842d:	66 90                	xchg   %ax,%ax
 804842f:	90                   	nop

08048430 <_dl_relocate_static_pie>:
 8048430:	f3 c3                	repz ret 
 8048432:	66 90                	xchg   %ax,%ax
 8048434:	66 90                	xchg   %ax,%ax
 8048436:	66 90                	xchg   %ax,%ax
 8048438:	66 90                	xchg   %ax,%ax
 804843a:	66 90                	xchg   %ax,%ax
 804843c:	66 90                	xchg   %ax,%ax
 804843e:	66 90                	xchg   %ax,%ax

08048440 <__x86.get_pc_thunk.bx>:
 8048440:	8b 1c 24             	mov    (%esp),%ebx
 8048443:	c3                   	ret    
 8048444:	66 90                	xchg   %ax,%ax
 8048446:	66 90                	xchg   %ax,%ax
 8048448:	66 90                	xchg   %ax,%ax
 804844a:	66 90                	xchg   %ax,%ax
 804844c:	66 90                	xchg   %ax,%ax
 804844e:	66 90                	xchg   %ax,%ax

08048450 <deregister_tm_clones>:
 8048450:	b8 2c a0 04 08       	mov    $0x804a02c,%eax
 8048455:	3d 2c a0 04 08       	cmp    $0x804a02c,%eax
 804845a:	74 24                	je     8048480 <deregister_tm_clones+0x30>
 804845c:	b8 00 00 00 00       	mov    $0x0,%eax
 8048461:	85 c0                	test   %eax,%eax
 8048463:	74 1b                	je     8048480 <deregister_tm_clones+0x30>
 8048465:	55                   	push   %ebp
 8048466:	89 e5                	mov    %esp,%ebp
 8048468:	83 ec 14             	sub    $0x14,%esp
 804846b:	68 2c a0 04 08       	push   $0x804a02c
 8048470:	ff d0                	call   *%eax
 8048472:	83 c4 10             	add    $0x10,%esp
 8048475:	c9                   	leave  
 8048476:	c3                   	ret    
 8048477:	89 f6                	mov    %esi,%esi
 8048479:	8d bc 27 00 00 00 00 	lea    0x0(%edi,%eiz,1),%edi
 8048480:	f3 c3                	repz ret 
 8048482:	8d b4 26 00 00 00 00 	lea    0x0(%esi,%eiz,1),%esi
 8048489:	8d bc 27 00 00 00 00 	lea    0x0(%edi,%eiz,1),%edi

08048490 <register_tm_clones>:
 8048490:	b8 2c a0 04 08       	mov    $0x804a02c,%eax
 8048495:	2d 2c a0 04 08       	sub    $0x804a02c,%eax
 804849a:	c1 f8 02             	sar    $0x2,%eax
 804849d:	89 c2                	mov    %eax,%edx
 804849f:	c1 ea 1f             	shr    $0x1f,%edx
 80484a2:	01 d0                	add    %edx,%eax
 80484a4:	d1 f8                	sar    %eax
 80484a6:	74 20                	je     80484c8 <register_tm_clones+0x38>
 80484a8:	ba 00 00 00 00       	mov    $0x0,%edx
 80484ad:	85 d2                	test   %edx,%edx
 80484af:	74 17                	je     80484c8 <register_tm_clones+0x38>
 80484b1:	55                   	push   %ebp
 80484b2:	89 e5                	mov    %esp,%ebp
 80484b4:	83 ec 10             	sub    $0x10,%esp
 80484b7:	50                   	push   %eax
 80484b8:	68 2c a0 04 08       	push   $0x804a02c
 80484bd:	ff d2                	call   *%edx
 80484bf:	83 c4 10             	add    $0x10,%esp
 80484c2:	c9                   	leave  
 80484c3:	c3                   	ret    
 80484c4:	8d 74 26 00          	lea    0x0(%esi,%eiz,1),%esi
 80484c8:	f3 c3                	repz ret 
 80484ca:	8d b6 00 00 00 00    	lea    0x0(%esi),%esi

080484d0 <__do_global_dtors_aux>:
 80484d0:	80 3d 44 a0 04 08 00 	cmpb   $0x0,0x804a044
 80484d7:	75 17                	jne    80484f0 <__do_global_dtors_aux+0x20>
 80484d9:	55                   	push   %ebp
 80484da:	89 e5                	mov    %esp,%ebp
 80484dc:	83 ec 08             	sub    $0x8,%esp
 80484df:	e8 6c ff ff ff       	call   8048450 <deregister_tm_clones>
 80484e4:	c6 05 44 a0 04 08 01 	movb   $0x1,0x804a044
 80484eb:	c9                   	leave  
 80484ec:	c3                   	ret    
 80484ed:	8d 76 00             	lea    0x0(%esi),%esi
 80484f0:	f3 c3                	repz ret 
 80484f2:	8d b4 26 00 00 00 00 	lea    0x0(%esi,%eiz,1),%esi
 80484f9:	8d bc 27 00 00 00 00 	lea    0x0(%edi,%eiz,1),%edi

08048500 <frame_dummy>:
 8048500:	55                   	push   %ebp
 8048501:	89 e5                	mov    %esp,%ebp
 8048503:	5d                   	pop    %ebp
 8048504:	eb 8a                	jmp    8048490 <register_tm_clones>

08048506 <vulnerable>:
 8048506:	55                   	push   %ebp
 8048507:	89 e5                	mov    %esp,%ebp
 8048509:	83 ec 08             	sub    $0x8,%esp
 804850c:	83 ec 0c             	sub    $0xc,%esp
 804850f:	ff 75 08             	push   0x8(%ebp)
 8048512:	e8 79 fe ff ff       	call   8048390 <printf@plt>
 8048517:	83 c4 10             	add    $0x10,%esp
 804851a:	90                   	nop
 804851b:	c9                   	leave  
 804851c:	c3                   	ret    

0804851d <main>:
 804851d:	8d 4c 24 04          	lea    0x4(%esp),%ecx
 8048521:	83 e4 f0             	and    $0xfffffff0,%esp
 8048524:	ff 71 fc             	push   -0x4(%ecx)
 8048527:	55                   	push   %ebp
 8048528:	89 e5                	mov    %esp,%ebp
 804852a:	57                   	push   %edi
 804852b:	51                   	push   %ecx
 804852c:	81 ec 20 01 00 00    	sub    $0x120,%esp
 8048532:	89 c8                	mov    %ecx,%eax
 8048534:	8b 40 04             	mov    0x4(%eax),%eax
 8048537:	89 85 e4 fe ff ff    	mov    %eax,-0x11c(%ebp)
 804853d:	65 a1 14 00 00 00    	mov    %gs:0x14,%eax
 8048543:	89 45 f4             	mov    %eax,-0xc(%ebp)
 8048546:	31 c0                	xor    %eax,%eax
 8048548:	c7 85 f4 fe ff ff 00 	movl   $0x0,-0x10c(%ebp)
 804854f:	00 00 00 
 8048552:	8d 95 f8 fe ff ff    	lea    -0x108(%ebp),%edx
 8048558:	b8 00 00 00 00       	mov    $0x0,%eax
 804855d:	b9 3f 00 00 00       	mov    $0x3f,%ecx
 8048562:	89 d7                	mov    %edx,%edi
 8048564:	f3 ab                	rep stos %eax,%es:(%edi)
 8048566:	a1 40 a0 04 08       	mov    0x804a040,%eax
 804856b:	83 ec 04             	sub    $0x4,%esp
 804856e:	50                   	push   %eax
 804856f:	68 c8 00 00 00       	push   $0xc8
 8048574:	8d 85 f4 fe ff ff    	lea    -0x10c(%ebp),%eax
 804857a:	50                   	push   %eax
 804857b:	e8 20 fe ff ff       	call   80483a0 <fgets@plt>
 8048580:	83 c4 10             	add    $0x10,%esp
 8048583:	a1 40 a0 04 08       	mov    0x804a040,%eax
 8048588:	83 ec 04             	sub    $0x4,%esp
 804858b:	50                   	push   %eax
 804858c:	68 c8 00 00 00       	push   $0xc8
 8048591:	68 60 a0 04 08       	push   $0x804a060
 8048596:	e8 05 fe ff ff       	call   80483a0 <fgets@plt>
 804859b:	83 c4 10             	add    $0x10,%esp
 804859e:	83 ec 0c             	sub    $0xc,%esp
 80485a1:	68 60 a0 04 08       	push   $0x804a060
 80485a6:	e8 15 fe ff ff       	call   80483c0 <strlen@plt>
 80485ab:	83 c4 10             	add    $0x10,%esp
 80485ae:	83 e8 01             	sub    $0x1,%eax
 80485b1:	c6 80 60 a0 04 08 00 	movb   $0x0,0x804a060(%eax)
 80485b8:	83 ec 0c             	sub    $0xc,%esp
 80485bb:	6a 28                	push   $0x28
 80485bd:	6a 1e                	push   $0x1e
 80485bf:	6a 14                	push   $0x14
 80485c1:	6a 0a                	push   $0xa
 80485c3:	8d 85 f4 fe ff ff    	lea    -0x10c(%ebp),%eax
 80485c9:	50                   	push   %eax
 80485ca:	e8 37 ff ff ff       	call   8048506 <vulnerable>
 80485cf:	83 c4 20             	add    $0x20,%esp
 80485d2:	83 ec 08             	sub    $0x8,%esp
 80485d5:	68 60 a0 04 08       	push   $0x804a060
 80485da:	68 b0 86 04 08       	push   $0x80486b0
 80485df:	e8 ac fd ff ff       	call   8048390 <printf@plt>
 80485e4:	83 c4 10             	add    $0x10,%esp
 80485e7:	0f b6 05 2a a0 04 08 	movzbl 0x804a02a,%eax
 80485ee:	0f be c0             	movsbl %al,%eax
 80485f1:	83 ec 08             	sub    $0x8,%esp
 80485f4:	50                   	push   %eax
 80485f5:	68 c0 86 04 08       	push   $0x80486c0
 80485fa:	e8 91 fd ff ff       	call   8048390 <printf@plt>
 80485ff:	83 c4 10             	add    $0x10,%esp
 8048602:	b8 00 00 00 00       	mov    $0x0,%eax
 8048607:	8b 55 f4             	mov    -0xc(%ebp),%edx
 804860a:	65 33 15 14 00 00 00 	xor    %gs:0x14,%edx
 8048611:	74 05                	je     8048618 <main+0xfb>
 8048613:	e8 98 fd ff ff       	call   80483b0 <__stack_chk_fail@plt>
 8048618:	8d 65 f8             	lea    -0x8(%ebp),%esp
 804861b:	59                   	pop    %ecx
 804861c:	5f                   	pop    %edi
 804861d:	5d                   	pop    %ebp
 804861e:	8d 61 fc             	lea    -0x4(%ecx),%esp
 8048621:	c3                   	ret    
 8048622:	66 90                	xchg   %ax,%ax
 8048624:	66 90                	xchg   %ax,%ax
 8048626:	66 90                	xchg   %ax,%ax
 8048628:	66 90                	xchg   %ax,%ax
 804862a:	66 90                	xchg   %ax,%ax
 804862c:	66 90                	xchg   %ax,%ax
 804862e:	66 90                	xchg   %ax,%ax

08048630 <__libc_csu_init>:
 8048630:	55                   	push   %ebp
 8048631:	57                   	push   %edi
 8048632:	56                   	push   %esi
 8048633:	53                   	push   %ebx
 8048634:	e8 07 fe ff ff       	call   8048440 <__x86.get_pc_thunk.bx>
 8048639:	81 c3 c7 19 00 00    	add    $0x19c7,%ebx
 804863f:	83 ec 0c             	sub    $0xc,%esp
 8048642:	8b 6c 24 28          	mov    0x28(%esp),%ebp
 8048646:	8d b3 10 ff ff ff    	lea    -0xf0(%ebx),%esi
 804864c:	e8 03 fd ff ff       	call   8048354 <_init>
 8048651:	8d 83 0c ff ff ff    	lea    -0xf4(%ebx),%eax
 8048657:	29 c6                	sub    %eax,%esi
 8048659:	c1 fe 02             	sar    $0x2,%esi
 804865c:	85 f6                	test   %esi,%esi
 804865e:	74 25                	je     8048685 <__libc_csu_init+0x55>
 8048660:	31 ff                	xor    %edi,%edi
 8048662:	8d b6 00 00 00 00    	lea    0x0(%esi),%esi
 8048668:	83 ec 04             	sub    $0x4,%esp
 804866b:	55                   	push   %ebp
 804866c:	ff 74 24 2c          	push   0x2c(%esp)
 8048670:	ff 74 24 2c          	push   0x2c(%esp)
 8048674:	ff 94 bb 0c ff ff ff 	call   *-0xf4(%ebx,%edi,4)
 804867b:	83 c7 01             	add    $0x1,%edi
 804867e:	83 c4 10             	add    $0x10,%esp
 8048681:	39 fe                	cmp    %edi,%esi
 8048683:	75 e3                	jne    8048668 <__libc_csu_init+0x38>
 8048685:	83 c4 0c             	add    $0xc,%esp
 8048688:	5b                   	pop    %ebx
 8048689:	5e                   	pop    %esi
 804868a:	5f                   	pop    %edi
 804868b:	5d                   	pop    %ebp
 804868c:	c3                   	ret    
 804868d:	8d 76 00             	lea    0x0(%esi),%esi

08048690 <__libc_csu_fini>:
 8048690:	f3 c3                	repz ret 

Disassembly of section .fini:

08048694 <_fini>:
 8048694:	53                   	push   %ebx
 8048695:	83 ec 08             	sub    $0x8,%esp
 8048698:	e8 a3 fd ff ff       	call   8048440 <__x86.get_pc_thunk.bx>
 804869d:	81 c3 63 19 00 00    	add    $0x1963,%ebx
 80486a3:	83 c4 08             	add    $0x8,%esp
 80486a6:	5b                   	pop    %ebx
 80486a7:	c3                   	ret    
